target datalayout = "e-m:e-p270:32:32-p271:32:32-p272:64:64-i64:64-i128:128-f80:128-n8:16:32:64-S128"
target triple = "x86_64-pc-linux-gnu"

%"struct.OpenColorIO_v2_5dev::GenericImageDesc" = type <{ i64, i64, i64, i64, ptr, ptr, ptr, ptr, %"class.std::shared_ptr", i8, i8, [6 x i8] }>
%"class.std::shared_ptr" = type { %"class.std::__shared_ptr" }
%"class.std::__shared_ptr" = type { ptr, %"class.std::__shared_count" }
%"class.std::__shared_count" = type { ptr }

@_ZTIN19OpenColorIO_v2_5dev9ExceptionE = external constant ptr
@.str.2 = private unnamed_addr constant [27 x i8] c"Invalid input image buffer\00", align 1

; Function Attrs: mustprogress nounwind uwtable
define linkonce_odr hidden noundef ptr @_ZNKSt12__shared_ptrIKN19OpenColorIO_v2_5dev5OpCPUELN9__gnu_cxx12_Lock_policyE2EE3getEv(ptr noundef nonnull align 8 dereferenceable(16) %0) #6 comdat align 2 {
  %2 = alloca ptr, align 8
  store ptr %0, ptr %2, align 8, !tbaa !56
  %3 = load ptr, ptr %2, align 8
  %4 = getelementptr inbounds nuw %"class.std::__shared_ptr", ptr %3, i32 0, i32 0
  %5 = load ptr, ptr %4, align 8, !tbaa !58
  ret ptr %5
}

; Function Attrs: mustprogress nounwind uwtable
define linkonce_odr hidden noundef ptr @_ZNKSt19__shared_ptr_accessIKN19OpenColorIO_v2_5dev5OpCPUELN9__gnu_cxx12_Lock_policyE2ELb0ELb0EE6_M_getEv(ptr noundef nonnull align 1 dereferenceable(1) %0) #6 comdat align 2 {
  %2 = alloca ptr, align 8
  store ptr %0, ptr %2, align 8, !tbaa !36
  %3 = load ptr, ptr %2, align 8
  %4 = call noundef ptr @_ZNKSt12__shared_ptrIKN19OpenColorIO_v2_5dev5OpCPUELN9__gnu_cxx12_Lock_policyE2EE3getEv(ptr noundef nonnull align 8 dereferenceable(16) %3) #3
  ret ptr %4
}

; Function Attrs: mustprogress nounwind uwtable
define linkonce_odr hidden noundef ptr @_ZNKSt19__shared_ptr_accessIKN19OpenColorIO_v2_5dev5OpCPUELN9__gnu_cxx12_Lock_policyE2ELb0ELb0EEptEv(ptr noundef nonnull align 1 dereferenceable(1) %0) #6 comdat align 2 {
  %2 = alloca ptr, align 8
  store ptr %0, ptr %2, align 8, !tbaa !36
  %3 = load ptr, ptr %2, align 8
  %4 = call noundef ptr @_ZNKSt19__shared_ptr_accessIKN19OpenColorIO_v2_5dev5OpCPUELN9__gnu_cxx12_Lock_policyE2ELb0ELb0EE6_M_getEv(ptr noundef nonnull align 1 dereferenceable(1) %3) #3
  ret ptr %4
}

; Function Attrs: mustprogress uwtable
define hidden void @_ZN19OpenColorIO_v2_5dev7GenericIfE21UnpackRGBAToImageDescERNS_16GenericImageDescEPfS4_il(ptr noundef nonnull align 8 dereferenceable(82) %0, ptr noundef %1, ptr noundef %2, i32 noundef %3, i64 noundef %4) #4 align 2 personality ptr @__gxx_personality_v0 {
  %6 = alloca ptr, align 8
  %7 = alloca ptr, align 8
  %8 = alloca ptr, align 8
  %9 = alloca i32, align 4
  %10 = alloca i64, align 8
  %11 = alloca ptr, align 8
  %12 = alloca i32, align 4
  %13 = alloca i64, align 8
  %14 = alloca i64, align 8
  %15 = alloca i64, align 8
  %16 = alloca i32, align 4
  %17 = alloca i64, align 8
  %18 = alloca i64, align 8
  %19 = alloca i64, align 8
  %20 = alloca i64, align 8
  %21 = alloca ptr, align 8
  %22 = alloca ptr, align 8
  %23 = alloca ptr, align 8
  %24 = alloca ptr, align 8
  %25 = alloca ptr, align 8
  %26 = alloca ptr, align 8
  %27 = alloca ptr, align 8
  %28 = alloca ptr, align 8
  %29 = alloca i32, align 4
  store ptr %0, ptr %6, align 8, !tbaa !3
  store ptr %1, ptr %7, align 8, !tbaa !10
  store ptr %2, ptr %8, align 8, !tbaa !10
  store i32 %3, ptr %9, align 4, !tbaa !12
  store i64 %4, ptr %10, align 8, !tbaa !14
  %30 = load ptr, ptr %7, align 8, !tbaa !10
  %31 = icmp eq ptr %30, null
  br i1 %31, label %32, label %39

32:                                               ; preds = %5
  %33 = call ptr @__cxa_allocate_exception(i64 16) #3
  invoke void @_ZN19OpenColorIO_v2_5dev9ExceptionC1EPKc(ptr noundef nonnull align 8 dereferenceable(16) %33, ptr noundef @.str.2)
          to label %34 unwind label %35

34:                                               ; preds = %32
  call void @__cxa_throw(ptr %33, ptr @_ZTIN19OpenColorIO_v2_5dev9ExceptionE, ptr @_ZN19OpenColorIO_v2_5dev9ExceptionD1Ev) #11
  unreachable

35:                                               ; preds = %32
  %36 = landingpad { ptr, i32 }
          cleanup
  %37 = extractvalue { ptr, i32 } %36, 0
  store ptr %37, ptr %11, align 8
  %38 = extractvalue { ptr, i32 } %36, 1
  store i32 %38, ptr %12, align 4
  call void @__cxa_free_exception(ptr %33) #3
  br label %199

39:                                               ; preds = %5
  call void @llvm.lifetime.start.p0(i64 8, ptr %13) #3
  %40 = load ptr, ptr %6, align 8, !tbaa !3
  %41 = getelementptr inbounds nuw %"struct.OpenColorIO_v2_5dev::GenericImageDesc", ptr %40, i32 0, i32 0
  %42 = load i64, ptr %41, align 8, !tbaa !16
  store i64 %42, ptr %13, align 8, !tbaa !14
  call void @llvm.lifetime.start.p0(i64 8, ptr %14) #3
  %43 = load ptr, ptr %6, align 8, !tbaa !3
  %44 = getelementptr inbounds nuw %"struct.OpenColorIO_v2_5dev::GenericImageDesc", ptr %43, i32 0, i32 1
  %45 = load i64, ptr %44, align 8, !tbaa !24
  store i64 %45, ptr %14, align 8, !tbaa !14
  call void @llvm.lifetime.start.p0(i64 8, ptr %15) #3
  %46 = load i64, ptr %13, align 8, !tbaa !14
  %47 = load i64, ptr %14, align 8, !tbaa !14
  %48 = mul nsw i64 %46, %47
  store i64 %48, ptr %15, align 8, !tbaa !14
  %49 = load i64, ptr %10, align 8, !tbaa !14
  %50 = icmp slt i64 %49, 0
  br i1 %50, label %55, label %51

51:                                               ; preds = %39
  %52 = load i64, ptr %10, align 8, !tbaa !14
  %53 = load i64, ptr %15, align 8, !tbaa !14
  %54 = icmp sge i64 %52, %53
  br i1 %54, label %55, label %56

55:                                               ; preds = %51, %39
  store i32 1, ptr %16, align 4
  br label %196

56:                                               ; preds = %51
  call void @llvm.lifetime.start.p0(i64 8, ptr %17) #3
  %57 = load ptr, ptr %6, align 8, !tbaa !3
  %58 = getelementptr inbounds nuw %"struct.OpenColorIO_v2_5dev::GenericImageDesc", ptr %57, i32 0, i32 2
  %59 = load i64, ptr %58, align 8, !tbaa !25
  store i64 %59, ptr %17, align 8, !tbaa !14
  call void @llvm.lifetime.start.p0(i64 8, ptr %18) #3
  %60 = load ptr, ptr %6, align 8, !tbaa !3
  %61 = getelementptr inbounds nuw %"struct.OpenColorIO_v2_5dev::GenericImageDesc", ptr %60, i32 0, i32 3
  %62 = load i64, ptr %61, align 8, !tbaa !26
  store i64 %62, ptr %18, align 8, !tbaa !14
  call void @llvm.lifetime.start.p0(i64 8, ptr %19) #3
  %63 = load i64, ptr %10, align 8, !tbaa !14
  %64 = load i64, ptr %13, align 8, !tbaa !14
  %65 = sdiv i64 %63, %64
  store i64 %65, ptr %19, align 8, !tbaa !14
  call void @llvm.lifetime.start.p0(i64 8, ptr %20) #3
  %66 = load i64, ptr %10, align 8, !tbaa !14
  %67 = load i64, ptr %13, align 8, !tbaa !14
  %68 = srem i64 %66, %67
  store i64 %68, ptr %20, align 8, !tbaa !14
  call void @llvm.lifetime.start.p0(i64 8, ptr %21) #3
  %69 = load ptr, ptr %6, align 8, !tbaa !3
  %70 = getelementptr inbounds nuw %"struct.OpenColorIO_v2_5dev::GenericImageDesc", ptr %69, i32 0, i32 4
  %71 = load ptr, ptr %70, align 8, !tbaa !27
  %72 = load i64, ptr %18, align 8, !tbaa !14
  %73 = load i64, ptr %19, align 8, !tbaa !14
  %74 = mul nsw i64 %72, %73
  %75 = getelementptr inbounds i8, ptr %71, i64 %74
  store ptr %75, ptr %21, align 8, !tbaa !8
  call void @llvm.lifetime.start.p0(i64 8, ptr %22) #3
  %76 = load ptr, ptr %6, align 8, !tbaa !3
  %77 = getelementptr inbounds nuw %"struct.OpenColorIO_v2_5dev::GenericImageDesc", ptr %76, i32 0, i32 5
  %78 = load ptr, ptr %77, align 8, !tbaa !28
  %79 = load i64, ptr %18, align 8, !tbaa !14
  %80 = load i64, ptr %19, align 8, !tbaa !14
  %81 = mul nsw i64 %79, %80
  %82 = getelementptr inbounds i8, ptr %78, i64 %81
  store ptr %82, ptr %22, align 8, !tbaa !8
  call void @llvm.lifetime.start.p0(i64 8, ptr %23) #3
  %83 = load ptr, ptr %6, align 8, !tbaa !3
  %84 = getelementptr inbounds nuw %"struct.OpenColorIO_v2_5dev::GenericImageDesc", ptr %83, i32 0, i32 6
  %85 = load ptr, ptr %84, align 8, !tbaa !29
  %86 = load i64, ptr %18, align 8, !tbaa !14
  %87 = load i64, ptr %19, align 8, !tbaa !14
  %88 = mul nsw i64 %86, %87
  %89 = getelementptr inbounds i8, ptr %85, i64 %88
  store ptr %89, ptr %23, align 8, !tbaa !8
  call void @llvm.lifetime.start.p0(i64 8, ptr %24) #3
  store ptr null, ptr %24, align 8, !tbaa !8
  call void @llvm.lifetime.start.p0(i64 8, ptr %25) #3
  %90 = load ptr, ptr %21, align 8, !tbaa !8
  %91 = load i64, ptr %17, align 8, !tbaa !14
  %92 = load i64, ptr %20, align 8, !tbaa !14
  %93 = mul nsw i64 %91, %92
  %94 = getelementptr inbounds i8, ptr %90, i64 %93
  store ptr %94, ptr %25, align 8, !tbaa !10
  call void @llvm.lifetime.start.p0(i64 8, ptr %26) #3
  %95 = load ptr, ptr %22, align 8, !tbaa !8
  %96 = load i64, ptr %17, align 8, !tbaa !14
  %97 = load i64, ptr %20, align 8, !tbaa !14
  %98 = mul nsw i64 %96, %97
  %99 = getelementptr inbounds i8, ptr %95, i64 %98
  store ptr %99, ptr %26, align 8, !tbaa !10
  call void @llvm.lifetime.start.p0(i64 8, ptr %27) #3
  %100 = load ptr, ptr %23, align 8, !tbaa !8
  %101 = load i64, ptr %17, align 8, !tbaa !14
  %102 = load i64, ptr %20, align 8, !tbaa !14
  %103 = mul nsw i64 %101, %102
  %104 = getelementptr inbounds i8, ptr %100, i64 %103
  store ptr %104, ptr %27, align 8, !tbaa !10
  call void @llvm.lifetime.start.p0(i64 8, ptr %28) #3
  store ptr null, ptr %28, align 8, !tbaa !10
  %105 = load ptr, ptr %6, align 8, !tbaa !3
  %106 = getelementptr inbounds nuw %"struct.OpenColorIO_v2_5dev::GenericImageDesc", ptr %105, i32 0, i32 7
  %107 = load ptr, ptr %106, align 8, !tbaa !30
  %108 = icmp ne ptr %107, null
  br i1 %108, label %109, label %122

109:                                              ; preds = %56
  %110 = load ptr, ptr %6, align 8, !tbaa !3
  %111 = getelementptr inbounds nuw %"struct.OpenColorIO_v2_5dev::GenericImageDesc", ptr %110, i32 0, i32 7
  %112 = load ptr, ptr %111, align 8, !tbaa !30
  %113 = load i64, ptr %18, align 8, !tbaa !14
  %114 = load i64, ptr %19, align 8, !tbaa !14
  %115 = mul nsw i64 %113, %114
  %116 = getelementptr inbounds i8, ptr %112, i64 %115
  store ptr %116, ptr %24, align 8, !tbaa !8
  %117 = load ptr, ptr %24, align 8, !tbaa !8
  %118 = load i64, ptr %17, align 8, !tbaa !14
  %119 = load i64, ptr %20, align 8, !tbaa !14
  %120 = mul nsw i64 %118, %119
  %121 = getelementptr inbounds i8, ptr %117, i64 %120
  store ptr %121, ptr %28, align 8, !tbaa !10
  br label %122

122:                                              ; preds = %109, %56
  %123 = load ptr, ptr %6, align 8, !tbaa !3
  %124 = getelementptr inbounds nuw %"struct.OpenColorIO_v2_5dev::GenericImageDesc", ptr %123, i32 0, i32 8
  %125 = call noundef ptr @_ZNKSt19__shared_ptr_accessIKN19OpenColorIO_v2_5dev5OpCPUELN9__gnu_cxx12_Lock_policyE2ELb0ELb0EEptEv(ptr noundef nonnull align 1 dereferenceable(1) %124) #3
  %126 = load ptr, ptr %7, align 8, !tbaa !10
  %127 = getelementptr inbounds float, ptr %126, i64 0
  %128 = load ptr, ptr %7, align 8, !tbaa !10
  %129 = getelementptr inbounds float, ptr %128, i64 0
  %130 = load i32, ptr %9, align 4, !tbaa !12
  %131 = sext i32 %130 to i64
  %132 = load ptr, ptr %125, align 8, !tbaa !34
  %133 = getelementptr inbounds ptr, ptr %132, i64 2
  %134 = load ptr, ptr %133, align 8
  call void %134(ptr noundef nonnull align 8 dereferenceable(8) %125, ptr noundef %127, ptr noundef %129, i64 noundef %131)
  call void @llvm.lifetime.start.p0(i64 4, ptr %29) #3
  store i32 0, ptr %29, align 4, !tbaa !12
  br label %135

135:                                              ; preds = %194, %122
  %136 = load i32, ptr %29, align 4, !tbaa !12
  %137 = load i32, ptr %9, align 4, !tbaa !12
  %138 = icmp slt i32 %136, %137
  br i1 %138, label %139, label %195

139:                                              ; preds = %135
  %140 = load ptr, ptr %7, align 8, !tbaa !10
  %141 = load i32, ptr %29, align 4, !tbaa !12
  %142 = mul nsw i32 4, %141
  %143 = sext i32 %142 to i64
  %144 = getelementptr inbounds float, ptr %140, i64 %143
  %145 = load float, ptr %144, align 4, !tbaa !49
  %146 = load ptr, ptr %25, align 8, !tbaa !10
  store float %145, ptr %146, align 4, !tbaa !49
  %147 = load ptr, ptr %7, align 8, !tbaa !10
  %148 = load i32, ptr %29, align 4, !tbaa !12
  %149 = mul nsw i32 4, %148
  %150 = add nsw i32 %149, 1
  %151 = sext i32 %150 to i64
  %152 = getelementptr inbounds float, ptr %147, i64 %151
  %153 = load float, ptr %152, align 4, !tbaa !49
  %154 = load ptr, ptr %26, align 8, !tbaa !10
  store float %153, ptr %154, align 4, !tbaa !49
  %155 = load ptr, ptr %7, align 8, !tbaa !10
  %156 = load i32, ptr %29, align 4, !tbaa !12
  %157 = mul nsw i32 4, %156
  %158 = add nsw i32 %157, 2
  %159 = sext i32 %158 to i64
  %160 = getelementptr inbounds float, ptr %155, i64 %159
  %161 = load float, ptr %160, align 4, !tbaa !49
  %162 = load ptr, ptr %27, align 8, !tbaa !10
  store float %161, ptr %162, align 4, !tbaa !49
  %163 = load ptr, ptr %28, align 8, !tbaa !10
  %164 = icmp ne ptr %163, null
  br i1 %164, label %165, label %174

165:                                              ; preds = %139
  %166 = load ptr, ptr %7, align 8, !tbaa !10
  %167 = load i32, ptr %29, align 4, !tbaa !12
  %168 = mul nsw i32 4, %167
  %169 = add nsw i32 %168, 3
  %170 = sext i32 %169 to i64
  %171 = getelementptr inbounds float, ptr %166, i64 %170
  %172 = load float, ptr %171, align 4, !tbaa !49
  %173 = load ptr, ptr %28, align 8, !tbaa !10
  store float %172, ptr %173, align 4, !tbaa !49
  br label %174

174:                                              ; preds = %165, %139
  %175 = load i32, ptr %29, align 4, !tbaa !12
  %176 = add nsw i32 %175, 1
  store i32 %176, ptr %29, align 4, !tbaa !12
  %177 = load i64, ptr %20, align 8, !tbaa !14
  %178 = add nsw i64 %177, 1
  store i64 %178, ptr %20, align 8, !tbaa !14
  %179 = load ptr, ptr %25, align 8, !tbaa !10
  %180 = load i64, ptr %17, align 8, !tbaa !14
  %181 = getelementptr inbounds i8, ptr %179, i64 %180
  store ptr %181, ptr %25, align 8, !tbaa !10
  %182 = load ptr, ptr %26, align 8, !tbaa !10
  %183 = load i64, ptr %17, align 8, !tbaa !14
  %184 = getelementptr inbounds i8, ptr %182, i64 %183
  store ptr %184, ptr %26, align 8, !tbaa !10
  %185 = load ptr, ptr %27, align 8, !tbaa !10
  %186 = load i64, ptr %17, align 8, !tbaa !14
  %187 = getelementptr inbounds i8, ptr %185, i64 %186
  store ptr %187, ptr %27, align 8, !tbaa !10
  %188 = load ptr, ptr %28, align 8, !tbaa !10
  %189 = icmp ne ptr %188, null
  br i1 %189, label %190, label %194

190:                                              ; preds = %174
  %191 = load ptr, ptr %28, align 8, !tbaa !10
  %192 = load i64, ptr %17, align 8, !tbaa !14
  %193 = getelementptr inbounds i8, ptr %191, i64 %192
  store ptr %193, ptr %28, align 8, !tbaa !10
  br label %194

194:                                              ; preds = %190, %174
  br label %135, !llvm.loop !55

195:                                              ; preds = %135
  call void @llvm.lifetime.end.p0(i64 4, ptr %29) #3
  call void @llvm.lifetime.end.p0(i64 8, ptr %28) #3
  call void @llvm.lifetime.end.p0(i64 8, ptr %27) #3
  call void @llvm.lifetime.end.p0(i64 8, ptr %26) #3
  call void @llvm.lifetime.end.p0(i64 8, ptr %25) #3
  call void @llvm.lifetime.end.p0(i64 8, ptr %24) #3
  call void @llvm.lifetime.end.p0(i64 8, ptr %23) #3
  call void @llvm.lifetime.end.p0(i64 8, ptr %22) #3
  call void @llvm.lifetime.end.p0(i64 8, ptr %21) #3
  call void @llvm.lifetime.end.p0(i64 8, ptr %20) #3
  call void @llvm.lifetime.end.p0(i64 8, ptr %19) #3
  call void @llvm.lifetime.end.p0(i64 8, ptr %18) #3
  call void @llvm.lifetime.end.p0(i64 8, ptr %17) #3
  store i32 0, ptr %16, align 4
  br label %196

196:                                              ; preds = %195, %55
  call void @llvm.lifetime.end.p0(i64 8, ptr %15) #3
  call void @llvm.lifetime.end.p0(i64 8, ptr %14) #3
  call void @llvm.lifetime.end.p0(i64 8, ptr %13) #3
  %197 = load i32, ptr %16, align 4
  switch i32 %197, label %204 [
    i32 0, label %198
    i32 1, label %198
  ]

198:                                              ; preds = %196, %196
  ret void

199:                                              ; preds = %35
  %200 = load ptr, ptr %11, align 8
  %201 = load i32, ptr %12, align 4
  %202 = insertvalue { ptr, i32 } poison, ptr %200, 0
  %203 = insertvalue { ptr, i32 } %202, i32 %201, 1
  resume { ptr, i32 } %203

204:                                              ; preds = %196
  unreachable
}