; Function Attrs: mustprogress uwtable
define hidden void @_ZN19OpenColorIO_v2_5dev7GenericIfE21UnpackRGBAToImageDescERNS_16GenericImageDescEPfS4_il(ptr noundef nonnull readonly align 8 captures(none) dereferenceable(82) %0, ptr noundef %1, ptr noundef readnone captures(none) %2, i32 noundef %3, i64 noundef %4) local_unnamed_addr #3 align 2 personality ptr @__gxx_personality_v0 {
  %6 = icmp eq ptr %1, null
  br i1 %6, label %7, label %12

7:                                                ; preds = %5
  %8 = tail call ptr @__cxa_allocate_exception(i64 16) #6
  invoke void @_ZN19OpenColorIO_v2_5dev9ExceptionC1EPKc(ptr noundef nonnull align 8 dereferenceable(16) %8, ptr noundef nonnull @.str.2)
          to label %9 unwind label %10

9:                                                ; preds = %7
  tail call void @__cxa_throw(ptr nonnull %8, ptr nonnull @_ZTIN19OpenColorIO_v2_5dev9ExceptionE, ptr nonnull @_ZN19OpenColorIO_v2_5dev9ExceptionD1Ev) #7
  unreachable

10:                                               ; preds = %7
  %11 = landingpad { ptr, i32 }
          cleanup
  tail call void @__cxa_free_exception(ptr nonnull %8) #6
  resume { ptr, i32 } %11

12:                                               ; preds = %5
  %13 = load i64, ptr %0, align 8, !tbaa !3
  %14 = icmp slt i64 %4, 0
  br i1 %14, label %.loopexit, label %15

15:                                               ; preds = %12
  %16 = getelementptr inbounds nuw i8, ptr %0, i64 8
  %17 = load i64, ptr %16, align 8, !tbaa !16
  %18 = mul nsw i64 %17, %13
  %.not = icmp slt i64 %4, %18
  br i1 %.not, label %19, label %.loopexit

19:                                               ; preds = %15
  %20 = getelementptr inbounds nuw i8, ptr %0, i64 16
  %21 = load i64, ptr %20, align 8, !tbaa !17
  %22 = getelementptr inbounds nuw i8, ptr %0, i64 24
  %23 = load i64, ptr %22, align 8, !tbaa !19
  %24 = getelementptr inbounds nuw i8, ptr %0, i64 32
  %25 = load ptr, ptr %24, align 8, !tbaa !22
  %26 = getelementptr inbounds nuw i8, ptr %0, i64 40
  %27 = load ptr, ptr %26, align 8, !tbaa !21
  %28 = getelementptr inbounds nuw i8, ptr %0, i64 48
  %29 = load ptr, ptr %28, align 8, !tbaa !20
  %30 = getelementptr inbounds nuw i8, ptr %0, i64 56
  %31 = load ptr, ptr %30, align 8, !tbaa !18
  %32 = getelementptr inbounds nuw i8, ptr %0, i64 64
  %33 = load ptr, ptr %32, align 8, !tbaa !26
  %34 = sext i32 %3 to i64
  %35 = load ptr, ptr %33, align 8, !tbaa !27
  %36 = getelementptr inbounds nuw i8, ptr %35, i64 16
  %37 = load ptr, ptr %36, align 8
  tail call void %37(ptr noundef nonnull align 8 dereferenceable(8) %33, ptr noundef nonnull %1, ptr noundef nonnull %1, i64 noundef %34)
  %38 = icmp sgt i32 %3, 0
  br i1 %38, label %.lr.ph.preheader, label %.loopexit

.lr.ph.preheader:                                 ; preds = %19
  %.not78 = icmp eq ptr %31, null
  %39 = sdiv i64 %4, %13
  %40 = mul nsw i64 %39, %23
  %41 = getelementptr inbounds i8, ptr %31, i64 %40
  %42 = srem i64 %4, %13
  %43 = mul nsw i64 %42, %21
  %44 = getelementptr inbounds i8, ptr %41, i64 %43
  %45 = getelementptr inbounds i8, ptr %29, i64 %40
  %46 = getelementptr inbounds i8, ptr %45, i64 %43
  %47 = getelementptr inbounds i8, ptr %27, i64 %40
  %48 = getelementptr inbounds i8, ptr %47, i64 %43
  %49 = getelementptr inbounds i8, ptr %25, i64 %40
  %50 = getelementptr inbounds i8, ptr %49, i64 %43
  %wide.trip.count = zext nneg i32 %3 to i64
  %spec.select87 = select i1 %.not78, ptr null, ptr %44
  br label %.lr.ph

.lr.ph:                                           ; preds = %.lr.ph.preheader, %64
  %indvars.iv = phi i64 [ %indvars.iv.next, %64 ], [ 0, %.lr.ph.preheader ]
  %.183 = phi ptr [ %spec.select, %64 ], [ %spec.select87, %.lr.ph.preheader ]
  %.07182 = phi ptr [ %67, %64 ], [ %46, %.lr.ph.preheader ]
  %.07281 = phi ptr [ %66, %64 ], [ %48, %.lr.ph.preheader ]
  %.07380 = phi ptr [ %65, %64 ], [ %50, %.lr.ph.preheader ]
  %51 = shl nsw i64 %indvars.iv, 2
  %52 = getelementptr inbounds nuw float, ptr %1, i64 %51
  %53 = load float, ptr %52, align 4, !tbaa !36
  store float %53, ptr %.07380, align 4, !tbaa !36
  %54 = or disjoint i64 %51, 1
  %55 = getelementptr inbounds nuw float, ptr %1, i64 %54
  %56 = load float, ptr %55, align 4, !tbaa !36
  store float %56, ptr %.07281, align 4, !tbaa !36
  %57 = or disjoint i64 %51, 2
  %58 = getelementptr inbounds nuw float, ptr %1, i64 %57
  %59 = load float, ptr %58, align 4, !tbaa !36
  store float %59, ptr %.07182, align 4, !tbaa !36
  %.not79 = icmp eq ptr %.183, null
  br i1 %.not79, label %64, label %60

60:                                               ; preds = %.lr.ph
  %61 = or disjoint i64 %51, 3
  %62 = getelementptr inbounds nuw float, ptr %1, i64 %61
  %63 = load float, ptr %62, align 4, !tbaa !36
  store float %63, ptr %.183, align 4, !tbaa !36
  br label %64

64:                                               ; preds = %60, %.lr.ph
  %indvars.iv.next = add nuw nsw i64 %indvars.iv, 1
  %65 = getelementptr inbounds i8, ptr %.07380, i64 %21
  %66 = getelementptr inbounds i8, ptr %.07281, i64 %21
  %67 = getelementptr inbounds i8, ptr %.07182, i64 %21
  %68 = getelementptr inbounds i8, ptr %.183, i64 %21
  %spec.select = select i1 %.not79, ptr null, ptr %68
  %exitcond.not = icmp eq i64 %indvars.iv.next, %wide.trip.count
  br i1 %exitcond.not, label %.loopexit, label %.lr.ph, !llvm.loop !39

.loopexit:                                        ; preds = %64, %19, %12, %15
  ret void
}